target datalayout = "e-m:e-p270:32:32-p271:32:32-p272:64:64-i64:64-i128:128-f80:128-n8:16:32:64-S128"
target triple = "x86_64-pc-linux-gnu"

%struct.FLAC__BitReader = type { ptr, i32, i32, i32, i32, i32, i32, i32, i32, i32, i32, i32, ptr, ptr }

@FLAC__crc16_table = external constant [8 x [256 x i16]], align 16

; Function Attrs: inlinehint nounwind sspstrong uwtable
define internal void @crc16_update_word_(ptr noundef %0, i64 noundef %1) #5 {
  %3 = alloca ptr, align 8
  %4 = alloca i64, align 8
  %5 = alloca i32, align 4
  %6 = alloca i32, align 4
  store ptr %0, ptr %3, align 8, !tbaa !3
  store i64 %1, ptr %4, align 8, !tbaa !28
  call void @llvm.lifetime.start.p0(i64 4, ptr %5) #10
  %7 = load ptr, ptr %3, align 8, !tbaa !3
  %8 = getelementptr inbounds nuw %struct.FLAC__BitReader, ptr %7, i32 0, i32 6
  %9 = load i32, ptr %8, align 4, !tbaa !25
  store i32 %9, ptr %5, align 4, !tbaa !32
  br label %10

10:                                               ; preds = %43, %2
  %11 = load ptr, ptr %3, align 8, !tbaa !3
  %12 = getelementptr inbounds nuw %struct.FLAC__BitReader, ptr %11, i32 0, i32 8
  %13 = load i32, ptr %12, align 4, !tbaa !27
  %14 = icmp ult i32 %13, 64
  br i1 %14, label %15, label %48

15:                                               ; preds = %10
  call void @llvm.lifetime.start.p0(i64 4, ptr %6) #10
  %16 = load ptr, ptr %3, align 8, !tbaa !3
  %17 = getelementptr inbounds nuw %struct.FLAC__BitReader, ptr %16, i32 0, i32 8
  %18 = load i32, ptr %17, align 4, !tbaa !27
  %19 = sub i32 56, %18
  store i32 %19, ptr %6, align 4, !tbaa !32
  %20 = load i32, ptr %5, align 4, !tbaa !32
  %21 = shl i32 %20, 8
  %22 = and i32 %21, 65535
  %23 = load i32, ptr %5, align 4, !tbaa !32
  %24 = lshr i32 %23, 8
  %25 = load i32, ptr %6, align 4, !tbaa !32
  %26 = icmp ult i32 %25, 64
  br i1 %26, label %27, label %33

27:                                               ; preds = %15
  %28 = load i64, ptr %4, align 8, !tbaa !28
  %29 = load i32, ptr %6, align 4, !tbaa !32
  %30 = zext i32 %29 to i64
  %31 = lshr i64 %28, %30
  %32 = and i64 %31, 255
  br label %34

33:                                               ; preds = %15
  br label %34

34:                                               ; preds = %33, %27
  %35 = phi i64 [ %32, %27 ], [ 0, %33 ]
  %36 = trunc i64 %35 to i32
  %37 = xor i32 %24, %36
  %38 = zext i32 %37 to i64
  %39 = getelementptr inbounds nuw [256 x i16], ptr @FLAC__crc16_table, i64 0, i64 %38
  %40 = load i16, ptr %39, align 2, !tbaa !23
  %41 = zext i16 %40 to i32
  %42 = xor i32 %22, %41
  store i32 %42, ptr %5, align 4, !tbaa !32
  call void @llvm.lifetime.end.p0(i64 4, ptr %6) #10
  br label %43

43:                                               ; preds = %34
  %44 = load ptr, ptr %3, align 8, !tbaa !3
  %45 = getelementptr inbounds nuw %struct.FLAC__BitReader, ptr %44, i32 0, i32 8
  %46 = load i32, ptr %45, align 4, !tbaa !27
  %47 = add i32 %46, 8
  store i32 %47, ptr %45, align 4, !tbaa !27
  br label %10, !llvm.loop !58

48:                                               ; preds = %10
  %49 = load i32, ptr %5, align 4, !tbaa !32
  %50 = load ptr, ptr %3, align 8, !tbaa !3
  %51 = getelementptr inbounds nuw %struct.FLAC__BitReader, ptr %50, i32 0, i32 6
  store i32 %49, ptr %51, align 4, !tbaa !25
  %52 = load ptr, ptr %3, align 8, !tbaa !3
  %53 = getelementptr inbounds nuw %struct.FLAC__BitReader, ptr %52, i32 0, i32 8
  store i32 0, ptr %53, align 4, !tbaa !27
  call void @llvm.lifetime.end.p0(i64 4, ptr %5) #10
  ret void
}

; Function Attrs: inlinehint nounwind sspstrong uwtable
define internal void @crc16_update_block_(ptr noundef %0) #5 {
  %2 = alloca ptr, align 8
  store ptr %0, ptr %2, align 8, !tbaa !3
  %3 = load ptr, ptr %2, align 8, !tbaa !3
  %4 = getelementptr inbounds nuw %struct.FLAC__BitReader, ptr %3, i32 0, i32 4
  %5 = load i32, ptr %4, align 4, !tbaa !16
  %6 = load ptr, ptr %2, align 8, !tbaa !3
  %7 = getelementptr inbounds nuw %struct.FLAC__BitReader, ptr %6, i32 0, i32 7
  %8 = load i32, ptr %7, align 8, !tbaa !26
  %9 = icmp ugt i32 %5, %8
  br i1 %9, label %10, label %27

10:                                               ; preds = %1
  %11 = load ptr, ptr %2, align 8, !tbaa !3
  %12 = getelementptr inbounds nuw %struct.FLAC__BitReader, ptr %11, i32 0, i32 8
  %13 = load i32, ptr %12, align 4, !tbaa !27
  %14 = icmp ne i32 %13, 0
  br i1 %14, label %15, label %27

15:                                               ; preds = %10
  %16 = load ptr, ptr %2, align 8, !tbaa !3
  %17 = load ptr, ptr %2, align 8, !tbaa !3
  %18 = getelementptr inbounds nuw %struct.FLAC__BitReader, ptr %17, i32 0, i32 0
  %19 = load ptr, ptr %18, align 8, !tbaa !8
  %20 = load ptr, ptr %2, align 8, !tbaa !3
  %21 = getelementptr inbounds nuw %struct.FLAC__BitReader, ptr %20, i32 0, i32 7
  %22 = load i32, ptr %21, align 8, !tbaa !26
  %23 = add i32 %22, 1
  store i32 %23, ptr %21, align 8, !tbaa !26
  %24 = zext i32 %22 to i64
  %25 = getelementptr inbounds nuw i64, ptr %19, i64 %24
  %26 = load i64, ptr %25, align 8, !tbaa !28
  call void @crc16_update_word_(ptr noundef %16, i64 noundef %26)
  br label %27

27:                                               ; preds = %15, %10, %1
  %28 = load ptr, ptr %2, align 8, !tbaa !3
  %29 = getelementptr inbounds nuw %struct.FLAC__BitReader, ptr %28, i32 0, i32 4
  %30 = load i32, ptr %29, align 4, !tbaa !16
  %31 = load ptr, ptr %2, align 8, !tbaa !3
  %32 = getelementptr inbounds nuw %struct.FLAC__BitReader, ptr %31, i32 0, i32 7
  %33 = load i32, ptr %32, align 8, !tbaa !26
  %34 = icmp ugt i32 %30, %33
  br i1 %34, label %35, label %59

35:                                               ; preds = %27
  %36 = load ptr, ptr %2, align 8, !tbaa !3
  %37 = getelementptr inbounds nuw %struct.FLAC__BitReader, ptr %36, i32 0, i32 0
  %38 = load ptr, ptr %37, align 8, !tbaa !8
  %39 = load ptr, ptr %2, align 8, !tbaa !3
  %40 = getelementptr inbounds nuw %struct.FLAC__BitReader, ptr %39, i32 0, i32 7
  %41 = load i32, ptr %40, align 8, !tbaa !26
  %42 = zext i32 %41 to i64
  %43 = getelementptr inbounds nuw i64, ptr %38, i64 %42
  %44 = load ptr, ptr %2, align 8, !tbaa !3
  %45 = getelementptr inbounds nuw %struct.FLAC__BitReader, ptr %44, i32 0, i32 4
  %46 = load i32, ptr %45, align 4, !tbaa !16
  %47 = load ptr, ptr %2, align 8, !tbaa !3
  %48 = getelementptr inbounds nuw %struct.FLAC__BitReader, ptr %47, i32 0, i32 7
  %49 = load i32, ptr %48, align 8, !tbaa !26
  %50 = sub i32 %46, %49
  %51 = load ptr, ptr %2, align 8, !tbaa !3
  %52 = getelementptr inbounds nuw %struct.FLAC__BitReader, ptr %51, i32 0, i32 6
  %53 = load i32, ptr %52, align 4, !tbaa !25
  %54 = trunc i32 %53 to i16
  %55 = call zeroext i16 @FLAC__crc16_update_words64(ptr noundef %43, i32 noundef %50, i16 noundef zeroext %54)
  %56 = zext i16 %55 to i32
  %57 = load ptr, ptr %2, align 8, !tbaa !3
  %58 = getelementptr inbounds nuw %struct.FLAC__BitReader, ptr %57, i32 0, i32 6
  store i32 %56, ptr %58, align 4, !tbaa !25
  br label %59

59:                                               ; preds = %35, %27
  %60 = load ptr, ptr %2, align 8, !tbaa !3
  %61 = getelementptr inbounds nuw %struct.FLAC__BitReader, ptr %60, i32 0, i32 7
  store i32 0, ptr %61, align 8, !tbaa !26
  ret void
}

; Function Attrs: nounwind sspstrong uwtable
define hidden zeroext i16 @FLAC__bitreader_get_read_crc16(ptr noundef %0) #0 {
  %2 = alloca ptr, align 8
  %3 = alloca i64, align 8
  store ptr %0, ptr %2, align 8, !tbaa !3
  %4 = load ptr, ptr %2, align 8, !tbaa !3
  call void @crc16_update_block_(ptr noundef %4)
  %5 = load ptr, ptr %2, align 8, !tbaa !3
  %6 = getelementptr inbounds nuw %struct.FLAC__BitReader, ptr %5, i32 0, i32 5
  %7 = load i32, ptr %6, align 8, !tbaa !15
  %8 = icmp ne i32 %7, 0
  br i1 %8, label %9, label %60

9:                                                ; preds = %1
  call void @llvm.lifetime.start.p0(i64 8, ptr %3) #10
  %10 = load ptr, ptr %2, align 8, !tbaa !3
  %11 = getelementptr inbounds nuw %struct.FLAC__BitReader, ptr %10, i32 0, i32 0
  %12 = load ptr, ptr %11, align 8, !tbaa !8
  %13 = load ptr, ptr %2, align 8, !tbaa !3
  %14 = getelementptr inbounds nuw %struct.FLAC__BitReader, ptr %13, i32 0, i32 4
  %15 = load i32, ptr %14, align 4, !tbaa !16
  %16 = zext i32 %15 to i64
  %17 = getelementptr inbounds nuw i64, ptr %12, i64 %16
  %18 = load i64, ptr %17, align 8, !tbaa !28
  store i64 %18, ptr %3, align 8, !tbaa !28
  br label %19

19:                                               ; preds = %54, %9
  %20 = load ptr, ptr %2, align 8, !tbaa !3
  %21 = getelementptr inbounds nuw %struct.FLAC__BitReader, ptr %20, i32 0, i32 8
  %22 = load i32, ptr %21, align 4, !tbaa !27
  %23 = load ptr, ptr %2, align 8, !tbaa !3
  %24 = getelementptr inbounds nuw %struct.FLAC__BitReader, ptr %23, i32 0, i32 5
  %25 = load i32, ptr %24, align 8, !tbaa !15
  %26 = icmp ult i32 %22, %25
  br i1 %26, label %27, label %59

27:                                               ; preds = %19
  %28 = load ptr, ptr %2, align 8, !tbaa !3
  %29 = getelementptr inbounds nuw %struct.FLAC__BitReader, ptr %28, i32 0, i32 6
  %30 = load i32, ptr %29, align 4, !tbaa !25
  %31 = shl i32 %30, 8
  %32 = and i32 %31, 65535
  %33 = load ptr, ptr %2, align 8, !tbaa !3
  %34 = getelementptr inbounds nuw %struct.FLAC__BitReader, ptr %33, i32 0, i32 6
  %35 = load i32, ptr %34, align 4, !tbaa !25
  %36 = lshr i32 %35, 8
  %37 = load i64, ptr %3, align 8, !tbaa !28
  %38 = load ptr, ptr %2, align 8, !tbaa !3
  %39 = getelementptr inbounds nuw %struct.FLAC__BitReader, ptr %38, i32 0, i32 8
  %40 = load i32, ptr %39, align 4, !tbaa !27
  %41 = sub i32 56, %40
  %42 = zext i32 %41 to i64
  %43 = lshr i64 %37, %42
  %44 = and i64 %43, 255
  %45 = trunc i64 %44 to i32
  %46 = xor i32 %36, %45
  %47 = zext i32 %46 to i64
  %48 = getelementptr inbounds nuw [256 x i16], ptr @FLAC__crc16_table, i64 0, i64 %47
  %49 = load i16, ptr %48, align 2, !tbaa !23
  %50 = zext i16 %49 to i32
  %51 = xor i32 %32, %50
  %52 = load ptr, ptr %2, align 8, !tbaa !3
  %53 = getelementptr inbounds nuw %struct.FLAC__BitReader, ptr %52, i32 0, i32 6
  store i32 %51, ptr %53, align 4, !tbaa !25
  br label %54

54:                                               ; preds = %27
  %55 = load ptr, ptr %2, align 8, !tbaa !3
  %56 = getelementptr inbounds nuw %struct.FLAC__BitReader, ptr %55, i32 0, i32 8
  %57 = load i32, ptr %56, align 4, !tbaa !27
  %58 = add i32 %57, 8
  store i32 %58, ptr %56, align 4, !tbaa !27
  br label %19, !llvm.loop !30

59:                                               ; preds = %19
  call void @llvm.lifetime.end.p0(i64 8, ptr %3) #10
  br label %60

60:                                               ; preds = %59, %1
  %61 = load ptr, ptr %2, align 8, !tbaa !3
  %62 = getelementptr inbounds nuw %struct.FLAC__BitReader, ptr %61, i32 0, i32 6
  %63 = load i32, ptr %62, align 4, !tbaa !25
  %64 = trunc i32 %63 to i16
  ret i16 %64
}