; Function Attrs: nounwind sspstrong uwtable
define hidden zeroext i16 @FLAC__bitreader_get_read_crc16(ptr noundef captures(none) %0) local_unnamed_addr #9 {
  %2 = getelementptr inbounds nuw i8, ptr %0, i64 20
  %3 = load i32, ptr %2, align 4, !tbaa !16
  %4 = getelementptr inbounds nuw i8, ptr %0, i64 32
  %5 = load i32, ptr %4, align 8, !tbaa !19
  %6 = icmp ugt i32 %3, %5
  br i1 %6, label %7, label %36

7:                                                ; preds = %1
  %8 = getelementptr inbounds nuw i8, ptr %0, i64 36
  %9 = load i32, ptr %8, align 4, !tbaa !20
  %.not.i = icmp eq i32 %9, 0
  br i1 %.not.i, label %36, label %10

10:                                               ; preds = %7
  %11 = load ptr, ptr %0, align 8, !tbaa !3
  %12 = add nuw i32 %5, 1
  store i32 %12, ptr %4, align 8, !tbaa !19
  %13 = zext i32 %5 to i64
  %14 = getelementptr inbounds nuw i64, ptr %11, i64 %13
  %15 = load i64, ptr %14, align 8, !tbaa !21
  %16 = getelementptr inbounds nuw i8, ptr %0, i64 28
  %17 = load i32, ptr %16, align 4, !tbaa !18
  %18 = icmp ult i32 %9, 64
  br i1 %18, label %.lr.ph.preheader.i.i, label %crc16_update_word_.exit.i

.lr.ph.preheader.i.i:                             ; preds = %10
  %19 = zext nneg i32 %9 to i64
  br label %.lr.ph.i.i

.lr.ph.i.i:                                       ; preds = %.lr.ph.i.i, %.lr.ph.preheader.i.i
  %indvars.iv.i.i = phi i64 [ %19, %.lr.ph.preheader.i.i ], [ %indvars.iv.next.i.i, %.lr.ph.i.i ]
  %.012.i.i = phi i32 [ %17, %.lr.ph.preheader.i.i ], [ %34, %.lr.ph.i.i ]
  %20 = sub nsw i64 56, %indvars.iv.i.i
  %21 = shl i32 %.012.i.i, 8
  %22 = and i32 %21, 65280
  %23 = lshr i32 %.012.i.i, 8
  %24 = icmp ult i64 %20, 64
  %25 = lshr i64 %15, %20
  %26 = trunc i64 %25 to i32
  %27 = and i32 %26, 255
  %28 = select i1 %24, i32 %27, i32 0
  %29 = xor i32 %28, %23
  %30 = zext nneg i32 %29 to i64
  %31 = getelementptr inbounds nuw [256 x i16], ptr @FLAC__crc16_table, i64 0, i64 %30
  %32 = load i16, ptr %31, align 2, !tbaa !23
  %33 = zext i16 %32 to i32
  %34 = xor i32 %22, %33
  %indvars.iv.next.i.i = add nuw nsw i64 %indvars.iv.i.i, 8
  %35 = icmp samesign ult i64 %indvars.iv.i.i, 56
  br i1 %35, label %.lr.ph.i.i, label %crc16_update_word_.exit.i, !llvm.loop !25

crc16_update_word_.exit.i:                        ; preds = %.lr.ph.i.i, %10
  %.0.lcssa.i.i = phi i32 [ %17, %10 ], [ %34, %.lr.ph.i.i ]
  store i32 %.0.lcssa.i.i, ptr %16, align 4, !tbaa !18
  store i32 0, ptr %8, align 4, !tbaa !20
  br label %36

36:                                               ; preds = %crc16_update_word_.exit.i, %7, %1
  %37 = phi i32 [ %12, %crc16_update_word_.exit.i ], [ %5, %7 ], [ %5, %1 ]
  %38 = icmp ugt i32 %3, %37
  br i1 %38, label %39, label %crc16_update_block_.exit

39:                                               ; preds = %36
  %40 = load ptr, ptr %0, align 8, !tbaa !3
  %41 = zext i32 %37 to i64
  %42 = getelementptr inbounds nuw i64, ptr %40, i64 %41
  %43 = sub nuw i32 %3, %37
  %44 = getelementptr inbounds nuw i8, ptr %0, i64 28
  %45 = load i32, ptr %44, align 4, !tbaa !18
  %46 = trunc i32 %45 to i16
  %47 = tail call zeroext i16 @FLAC__crc16_update_words64(ptr noundef %42, i32 noundef %43, i16 noundef zeroext %46) #21
  %48 = zext i16 %47 to i32
  store i32 %48, ptr %44, align 4, !tbaa !18
  br label %crc16_update_block_.exit

crc16_update_block_.exit:                         ; preds = %36, %39
  store i32 0, ptr %4, align 8, !tbaa !19
  %49 = getelementptr inbounds nuw i8, ptr %0, i64 24
  %50 = load i32, ptr %49, align 8, !tbaa !17
  %.not = icmp eq i32 %50, 0
  br i1 %.not, label %.loopexit, label %51

51:                                               ; preds = %crc16_update_block_.exit
  %52 = load ptr, ptr %0, align 8, !tbaa !3
  %53 = load i32, ptr %2, align 4, !tbaa !16
  %54 = zext i32 %53 to i64
  %55 = getelementptr inbounds nuw i64, ptr %52, i64 %54
  %56 = load i64, ptr %55, align 8, !tbaa !21
  %57 = getelementptr inbounds nuw i8, ptr %0, i64 36
  %.promoted = load i32, ptr %57, align 4, !tbaa !20
  %58 = icmp ult i32 %.promoted, %50
  br i1 %58, label %.lr.ph, label %.loopexit

.lr.ph:                                           ; preds = %51
  %59 = getelementptr inbounds nuw i8, ptr %0, i64 28
  %.promoted12 = load i32, ptr %59, align 4, !tbaa !18
  br label %60

60:                                               ; preds = %.lr.ph, %60
  %61 = phi i32 [ %.promoted12, %.lr.ph ], [ %76, %60 ]
  %62 = phi i32 [ %.promoted, %.lr.ph ], [ %77, %60 ]
  %63 = shl i32 %61, 8
  %64 = and i32 %63, 65280
  %65 = lshr i32 %61, 8
  %66 = sub i32 56, %62
  %67 = zext nneg i32 %66 to i64
  %68 = lshr i64 %56, %67
  %69 = trunc i64 %68 to i32
  %70 = and i32 %69, 255
  %71 = xor i32 %65, %70
  %72 = zext nneg i32 %71 to i64
  %73 = getelementptr inbounds nuw [256 x i16], ptr @FLAC__crc16_table, i64 0, i64 %72
  %74 = load i16, ptr %73, align 2, !tbaa !23
  %75 = zext i16 %74 to i32
  %76 = xor i32 %64, %75
  %77 = add i32 %62, 8
  %78 = icmp ult i32 %77, %50
  br i1 %78, label %60, label %..loopexit_crit_edge, !llvm.loop !27

..loopexit_crit_edge:                             ; preds = %60
  store i32 %76, ptr %59, align 4, !tbaa !18
  store i32 %77, ptr %57, align 4, !tbaa !20
  br label %.loopexit

.loopexit:                                        ; preds = %51, %..loopexit_crit_edge, %crc16_update_block_.exit
  %79 = getelementptr inbounds nuw i8, ptr %0, i64 28
  %80 = load i32, ptr %79, align 4, !tbaa !18
  %81 = trunc i32 %80 to i16
  ret i16 %81
}